target datalayout = "e-m:e-p270:32:32-p271:32:32-p272:64:64-i64:64-i128:128-f80:128-n8:16:32:64-S128"
target triple = "x86_64-pc-linux-gnu"

%struct.job_record = type { i32, ptr, ptr, ptr, ptr, i16, i32, i32, i32, ptr, i32, ptr, ptr, i16, ptr, double, i64, ptr, ptr, ptr, ptr, ptr, ptr, i32, ptr, i32, i64, i64, i32, i32, ptr, i16, i64, i64, i8, i32, ptr, ptr, ptr, ptr, ptr, ptr, ptr, ptr, i32, ptr, ptr, i32, ptr, i32, ptr, i32, ptr, i32, ptr, ptr, ptr, ptr, ptr, ptr, i32, i16, i64, ptr, ptr, ptr, ptr, %struct.acct_policy_limit_set_t, i16, ptr, ptr, ptr, ptr, ptr, i32, ptr, ptr, ptr, ptr, ptr, i32, i32, ptr, ptr, ptr, i16, ptr, ptr, i8, ptr, ptr, i64, i64, i8, i32, i32, i8, i32, ptr, i32, i64, i32, ptr, ptr, ptr, i8, i16, i64, i32, ptr, ptr, ptr, ptr, ptr, i16, i32, ptr, ptr, ptr, ptr, i32, ptr, i32, i16, i64, ptr, i32, i32, ptr, i64, ptr, ptr, i64, i32, i32, i64, i32, i32, ptr, ptr, ptr, ptr, ptr, ptr, ptr, ptr, ptr, ptr, ptr, ptr, i32, ptr, i16, i16, i16, i16, ptr, i32, i32, i8, i64 }
%struct.acct_policy_limit_set_t = type { i16, i16, ptr }
%struct.job_details_t = type { i32, ptr, i64, ptr, i32, ptr, i64, ptr, i16, i16, ptr, i16, i32, i32, i32, i16, ptr, i16, ptr, ptr, ptr, i16, ptr, ptr, ptr, ptr, i32, ptr, ptr, ptr, ptr, ptr, i32, i32, i32, ptr, ptr, i16, i32, i32, i32, i32, i32, i32, i16, i16, i32, i8, i8, i32, i32, i64, i64, i16, i32, ptr, ptr, i8, ptr, i32, ptr, i64, ptr, ptr, i16, i16, i16, i8, ptr, ptr, ptr, ptr, ptr, ptr, i64, i32, i32, i8, ptr, i16, ptr, ptr, i16 }

; Function Attrs: nounwind uwtable
define dso_local i32 @priority_p_set(i32 noundef %0, ptr noundef %1) #0 {
  %3 = alloca i32, align 4
  %4 = alloca i32, align 4
  %5 = alloca ptr, align 8
  %6 = alloca i32, align 4
  %7 = alloca i32, align 4
  %8 = alloca i32, align 4
  store i32 %0, ptr %4, align 4
  store ptr %1, ptr %5, align 8
  call void @llvm.lifetime.start.p0(i64 4, ptr %6) #5
  store i32 1, ptr %6, align 4
  %9 = load ptr, ptr %5, align 8
  %10 = getelementptr inbounds nuw %struct.job_record, ptr %9, i32 0, i32 31
  %11 = load i16, ptr %10, align 8
  %12 = zext i16 %11 to i32
  %13 = icmp ne i32 %12, 0
  br i1 %13, label %14, label %23

14:                                               ; preds = %2
  %15 = load ptr, ptr %5, align 8
  %16 = getelementptr inbounds nuw %struct.job_record, ptr %15, i32 0, i32 97
  %17 = load i32, ptr %16, align 8
  %18 = icmp ugt i32 %17, 1
  br i1 %18, label %19, label %23

19:                                               ; preds = %14
  %20 = load ptr, ptr %5, align 8
  %21 = getelementptr inbounds nuw %struct.job_record, ptr %20, i32 0, i32 97
  %22 = load i32, ptr %21, align 8
  store i32 %22, ptr %3, align 4
  store i32 1, ptr %7, align 4
  br label %60

23:                                               ; preds = %14, %2
  %24 = load i32, ptr %4, align 4
  %25 = icmp uge i32 %24, 2
  br i1 %25, label %26, label %29

26:                                               ; preds = %23
  %27 = load i32, ptr %4, align 4
  %28 = sub i32 %27, 1
  store i32 %28, ptr %6, align 4
  br label %29

29:                                               ; preds = %26, %23
  %30 = load ptr, ptr %5, align 8
  %31 = getelementptr inbounds nuw %struct.job_record, ptr %30, i32 0, i32 30
  %32 = load ptr, ptr %31, align 8
  %33 = icmp ne ptr %32, null
  br i1 %33, label %34, label %54

34:                                               ; preds = %29
  call void @llvm.lifetime.start.p0(i64 4, ptr %8) #5
  %35 = load ptr, ptr %5, align 8
  %36 = getelementptr inbounds nuw %struct.job_record, ptr %35, i32 0, i32 30
  %37 = load ptr, ptr %36, align 8
  %38 = getelementptr inbounds nuw %struct.job_details_t, ptr %37, i32 0, i32 43
  %39 = load i32, ptr %38, align 8
  store i32 %39, ptr %8, align 4
  %40 = load i32, ptr %8, align 4
  %41 = sub i32 %40, -2147483648
  store i32 %41, ptr %8, align 4
  %42 = load i32, ptr %8, align 4
  %43 = icmp sle i32 %42, 0
  br i1 %43, label %49, label %44

44:                                               ; preds = %34
  %45 = load i32, ptr %6, align 4
  %46 = load i32, ptr %8, align 4
  %47 = add nsw i32 %46, 1
  %48 = icmp ugt i32 %45, %47
  br i1 %48, label %49, label %53

49:                                               ; preds = %44, %34
  %50 = load i32, ptr %8, align 4
  %51 = load i32, ptr %6, align 4
  %52 = sub i32 %51, %50
  store i32 %52, ptr %6, align 4
  br label %53

53:                                               ; preds = %49, %44
  call void @llvm.lifetime.end.p0(i64 4, ptr %8) #5
  br label %54

54:                                               ; preds = %53, %29
  %55 = load i32, ptr %6, align 4
  %56 = icmp ult i32 %55, 1
  br i1 %56, label %57, label %58

57:                                               ; preds = %54
  store i32 1, ptr %6, align 4
  br label %58

58:                                               ; preds = %57, %54
  %59 = load i32, ptr %6, align 4
  store i32 %59, ptr %3, align 4
  store i32 1, ptr %7, align 4
  br label %60

60:                                               ; preds = %58, %19
  call void @llvm.lifetime.end.p0(i64 4, ptr %6) #5
  %61 = load i32, ptr %3, align 4
  ret i32 %61
}