; Function Attrs: mustprogress nofree norecurse nosync nounwind willreturn memory(read, inaccessiblemem: none) uwtable
define dso_local range(i32 1, 0) i32 @priority_p_set(i32 noundef %0, ptr noundef readonly captures(none) %1) local_unnamed_addr #3 {
  %3 = getelementptr inbounds nuw i8, ptr %1, i64 224
  %4 = load i16, ptr %3, align 8
  %.not = icmp eq i16 %4, 0
  br i1 %.not, label %9, label %5

5:                                                ; preds = %2
  %6 = getelementptr inbounds nuw i8, ptr %1, i64 720
  %7 = load i32, ptr %6, align 8
  %8 = icmp ugt i32 %7, 1
  br i1 %8, label %22, label %9

9:                                                ; preds = %5, %2
  %10 = tail call i32 @llvm.umax.i32(i32 %0, i32 2)
  %spec.select = add i32 %10, -1
  %11 = getelementptr inbounds nuw i8, ptr %1, i64 216
  %12 = load ptr, ptr %11, align 8
  %.not20 = icmp eq ptr %12, null
  br i1 %.not20, label %21, label %13

13:                                               ; preds = %9
  %14 = getelementptr inbounds nuw i8, ptr %12, i64 288
  %15 = load i32, ptr %14, align 8
  %16 = xor i32 %15, -2147483648
  %17 = icmp slt i32 %16, 1
  %18 = add i32 %15, -2147483647
  %19 = icmp ugt i32 %spec.select, %18
  %or.cond = or i1 %17, %19
  %20 = select i1 %or.cond, i32 %16, i32 0
  %.2 = sub i32 %spec.select, %20
  br label %21

21:                                               ; preds = %13, %9
  %.1 = phi i32 [ %.2, %13 ], [ %spec.select, %9 ]
  %spec.store.select = tail call i32 @llvm.umax.i32(i32 %.1, i32 1)
  br label %22

22:                                               ; preds = %5, %21
  %.015 = phi i32 [ %spec.store.select, %21 ], [ %7, %5 ]
  ret i32 %.015
}